target datalayout = "e-m:e-p270:32:32-p271:32:32-p272:64:64-i64:64-i128:128-f80:128-n8:16:32:64-S128"
target triple = "x86_64-pc-linux-gnu"

%struct.UriMemoryManagerStruct = type { ptr, ptr, ptr, ptr, ptr, ptr }
%struct.UriParserStateStructA = type { ptr, i32, ptr, ptr }
%struct.UriUriStructA = type { %struct.UriTextRangeStructA, %struct.UriTextRangeStructA, %struct.UriTextRangeStructA, %struct.UriHostDataStructA, %struct.UriTextRangeStructA, ptr, ptr, %struct.UriTextRangeStructA, %struct.UriTextRangeStructA, i32, i32, ptr }
%struct.UriHostDataStructA = type { ptr, ptr, %struct.UriTextRangeStructA }
%struct.UriTextRangeStructA = type { ptr, ptr }
%struct.UriPathSegmentStructA = type { %struct.UriTextRangeStructA, ptr, ptr }

@uriSafeToPointToA = external constant ptr, align 8

; Function Attrs: nounwind uwtable
define internal ptr @uriParseZeroMoreSlashSegsA(ptr noundef %0, ptr noundef %1, ptr noundef %2, ptr noundef %3) #0 {
  %5 = alloca ptr, align 8
  %6 = alloca ptr, align 8
  %7 = alloca ptr, align 8
  %8 = alloca ptr, align 8
  %9 = alloca ptr, align 8
  %10 = alloca ptr, align 8
  %11 = alloca i32, align 4
  store ptr %0, ptr %6, align 8, !tbaa !3
  store ptr %1, ptr %7, align 8, !tbaa !8
  store ptr %2, ptr %8, align 8, !tbaa !8
  store ptr %3, ptr %9, align 8, !tbaa !10
  %12 = load ptr, ptr %7, align 8, !tbaa !8
  %13 = load ptr, ptr %8, align 8, !tbaa !8
  %14 = icmp uge ptr %12, %13
  br i1 %14, label %15, label %17

15:                                               ; preds = %4
  %16 = load ptr, ptr %8, align 8, !tbaa !8
  store ptr %16, ptr %5, align 8
  br label %51

17:                                               ; preds = %4
  %18 = load ptr, ptr %7, align 8, !tbaa !8
  %19 = load i8, ptr %18, align 1, !tbaa !57
  %20 = sext i8 %19 to i32
  switch i32 %20, label %49 [
    i32 47, label %21
  ]

21:                                               ; preds = %17
  call void @llvm.lifetime.start.p0(i64 8, ptr %10) #7
  %22 = load ptr, ptr %6, align 8, !tbaa !3
  %23 = load ptr, ptr %7, align 8, !tbaa !8
  %24 = getelementptr inbounds i8, ptr %23, i64 1
  %25 = load ptr, ptr %8, align 8, !tbaa !8
  %26 = load ptr, ptr %9, align 8, !tbaa !10
  %27 = call ptr @uriParseSegmentA(ptr noundef %22, ptr noundef %24, ptr noundef %25, ptr noundef %26)
  store ptr %27, ptr %10, align 8, !tbaa !8
  %28 = load ptr, ptr %10, align 8, !tbaa !8
  %29 = icmp eq ptr %28, null
  br i1 %29, label %30, label %31

30:                                               ; preds = %21
  store ptr null, ptr %5, align 8
  store i32 1, ptr %11, align 4
  br label %48

31:                                               ; preds = %21
  %32 = load ptr, ptr %6, align 8, !tbaa !3
  %33 = load ptr, ptr %7, align 8, !tbaa !8
  %34 = getelementptr inbounds i8, ptr %33, i64 1
  %35 = load ptr, ptr %10, align 8, !tbaa !8
  %36 = load ptr, ptr %9, align 8, !tbaa !10
  %37 = call i32 @uriPushPathSegmentA(ptr noundef %32, ptr noundef %34, ptr noundef %35, ptr noundef %36)
  %38 = icmp ne i32 %37, 0
  br i1 %38, label %42, label %39

39:                                               ; preds = %31
  %40 = load ptr, ptr %6, align 8, !tbaa !3
  %41 = load ptr, ptr %9, align 8, !tbaa !10
  call void @uriStopMallocA(ptr noundef %40, ptr noundef %41)
  store ptr null, ptr %5, align 8
  store i32 1, ptr %11, align 4
  br label %48

42:                                               ; preds = %31
  %43 = load ptr, ptr %6, align 8, !tbaa !3
  %44 = load ptr, ptr %10, align 8, !tbaa !8
  %45 = load ptr, ptr %8, align 8, !tbaa !8
  %46 = load ptr, ptr %9, align 8, !tbaa !10
  %47 = call ptr @uriParseZeroMoreSlashSegsA(ptr noundef %43, ptr noundef %44, ptr noundef %45, ptr noundef %46)
  store ptr %47, ptr %5, align 8
  store i32 1, ptr %11, align 4
  br label %48

48:                                               ; preds = %42, %39, %30
  call void @llvm.lifetime.end.p0(i64 8, ptr %10) #7
  br label %51

49:                                               ; preds = %17
  %50 = load ptr, ptr %7, align 8, !tbaa !8
  store ptr %50, ptr %5, align 8
  br label %51

51:                                               ; preds = %49, %48, %15
  %52 = load ptr, ptr %5, align 8
  ret ptr %52
}

; Function Attrs: inlinehint nounwind uwtable
define internal void @uriStopMallocA(ptr noundef %0, ptr noundef %1) #4 {
  %3 = alloca ptr, align 8
  %4 = alloca ptr, align 8
  store ptr %0, ptr %3, align 8, !tbaa !3
  store ptr %1, ptr %4, align 8, !tbaa !10
  %5 = load ptr, ptr %3, align 8, !tbaa !3
  %6 = getelementptr inbounds nuw %struct.UriParserStateStructA, ptr %5, i32 0, i32 0
  %7 = load ptr, ptr %6, align 8, !tbaa !12
  %8 = load ptr, ptr %4, align 8, !tbaa !10
  %9 = call i32 @uriFreeUriMembersMmA(ptr noundef %7, ptr noundef %8)
  %10 = load ptr, ptr %3, align 8, !tbaa !3
  %11 = getelementptr inbounds nuw %struct.UriParserStateStructA, ptr %10, i32 0, i32 2
  store ptr null, ptr %11, align 8, !tbaa !17
  %12 = load ptr, ptr %3, align 8, !tbaa !3
  %13 = getelementptr inbounds nuw %struct.UriParserStateStructA, ptr %12, i32 0, i32 1
  store i32 3, ptr %13, align 8, !tbaa !18
  ret void
}

; Function Attrs: inlinehint nounwind uwtable
define internal i32 @uriPushPathSegmentA(ptr noundef %0, ptr noundef %1, ptr noundef %2, ptr noundef %3) #4 {
  %5 = alloca i32, align 4
  %6 = alloca ptr, align 8
  %7 = alloca ptr, align 8
  %8 = alloca ptr, align 8
  %9 = alloca ptr, align 8
  %10 = alloca ptr, align 8
  %11 = alloca i32, align 4
  store ptr %0, ptr %6, align 8, !tbaa !3
  store ptr %1, ptr %7, align 8, !tbaa !8
  store ptr %2, ptr %8, align 8, !tbaa !8
  store ptr %3, ptr %9, align 8, !tbaa !10
  call void @llvm.lifetime.start.p0(i64 8, ptr %10) #7
  %12 = load ptr, ptr %9, align 8, !tbaa !10
  %13 = getelementptr inbounds nuw %struct.UriMemoryManagerStruct, ptr %12, i32 0, i32 1
  %14 = load ptr, ptr %13, align 8, !tbaa !101
  %15 = load ptr, ptr %9, align 8, !tbaa !10
  %16 = call ptr %14(ptr noundef %15, i64 noundef 1, i64 noundef 32)
  store ptr %16, ptr %10, align 8, !tbaa !44
  %17 = load ptr, ptr %10, align 8, !tbaa !44
  %18 = icmp eq ptr %17, null
  br i1 %18, label %19, label %20

19:                                               ; preds = %4
  store i32 0, ptr %5, align 4
  store i32 1, ptr %11, align 4
  br label %74

20:                                               ; preds = %4
  %21 = load ptr, ptr %7, align 8, !tbaa !8
  %22 = load ptr, ptr %8, align 8, !tbaa !8
  %23 = icmp eq ptr %21, %22
  br i1 %23, label %24, label %33

24:                                               ; preds = %20
  %25 = load ptr, ptr @uriSafeToPointToA, align 8, !tbaa !8
  %26 = load ptr, ptr %10, align 8, !tbaa !44
  %27 = getelementptr inbounds nuw %struct.UriPathSegmentStructA, ptr %26, i32 0, i32 0
  %28 = getelementptr inbounds nuw %struct.UriTextRangeStructA, ptr %27, i32 0, i32 0
  store ptr %25, ptr %28, align 8, !tbaa !47
  %29 = load ptr, ptr @uriSafeToPointToA, align 8, !tbaa !8
  %30 = load ptr, ptr %10, align 8, !tbaa !44
  %31 = getelementptr inbounds nuw %struct.UriPathSegmentStructA, ptr %30, i32 0, i32 0
  %32 = getelementptr inbounds nuw %struct.UriTextRangeStructA, ptr %31, i32 0, i32 1
  store ptr %29, ptr %32, align 8, !tbaa !48
  br label %42

33:                                               ; preds = %20
  %34 = load ptr, ptr %7, align 8, !tbaa !8
  %35 = load ptr, ptr %10, align 8, !tbaa !44
  %36 = getelementptr inbounds nuw %struct.UriPathSegmentStructA, ptr %35, i32 0, i32 0
  %37 = getelementptr inbounds nuw %struct.UriTextRangeStructA, ptr %36, i32 0, i32 0
  store ptr %34, ptr %37, align 8, !tbaa !47
  %38 = load ptr, ptr %8, align 8, !tbaa !8
  %39 = load ptr, ptr %10, align 8, !tbaa !44
  %40 = getelementptr inbounds nuw %struct.UriPathSegmentStructA, ptr %39, i32 0, i32 0
  %41 = getelementptr inbounds nuw %struct.UriTextRangeStructA, ptr %40, i32 0, i32 1
  store ptr %38, ptr %41, align 8, !tbaa !48
  br label %42

42:                                               ; preds = %33, %24
  %43 = load ptr, ptr %6, align 8, !tbaa !3
  %44 = getelementptr inbounds nuw %struct.UriParserStateStructA, ptr %43, i32 0, i32 0
  %45 = load ptr, ptr %44, align 8, !tbaa !12
  %46 = getelementptr inbounds nuw %struct.UriUriStructA, ptr %45, i32 0, i32 5
  %47 = load ptr, ptr %46, align 8, !tbaa !43
  %48 = icmp eq ptr %47, null
  br i1 %48, label %49, label %60

49:                                               ; preds = %42
  %50 = load ptr, ptr %10, align 8, !tbaa !44
  %51 = load ptr, ptr %6, align 8, !tbaa !3
  %52 = getelementptr inbounds nuw %struct.UriParserStateStructA, ptr %51, i32 0, i32 0
  %53 = load ptr, ptr %52, align 8, !tbaa !12
  %54 = getelementptr inbounds nuw %struct.UriUriStructA, ptr %53, i32 0, i32 5
  store ptr %50, ptr %54, align 8, !tbaa !43
  %55 = load ptr, ptr %10, align 8, !tbaa !44
  %56 = load ptr, ptr %6, align 8, !tbaa !3
  %57 = getelementptr inbounds nuw %struct.UriParserStateStructA, ptr %56, i32 0, i32 0
  %58 = load ptr, ptr %57, align 8, !tbaa !12
  %59 = getelementptr inbounds nuw %struct.UriUriStructA, ptr %58, i32 0, i32 6
  store ptr %55, ptr %59, align 8, !tbaa !51
  br label %73

60:                                               ; preds = %42
  %61 = load ptr, ptr %10, align 8, !tbaa !44
  %62 = load ptr, ptr %6, align 8, !tbaa !3
  %63 = getelementptr inbounds nuw %struct.UriParserStateStructA, ptr %62, i32 0, i32 0
  %64 = load ptr, ptr %63, align 8, !tbaa !12
  %65 = getelementptr inbounds nuw %struct.UriUriStructA, ptr %64, i32 0, i32 6
  %66 = load ptr, ptr %65, align 8, !tbaa !51
  %67 = getelementptr inbounds nuw %struct.UriPathSegmentStructA, ptr %66, i32 0, i32 1
  store ptr %61, ptr %67, align 8, !tbaa !45
  %68 = load ptr, ptr %10, align 8, !tbaa !44
  %69 = load ptr, ptr %6, align 8, !tbaa !3
  %70 = getelementptr inbounds nuw %struct.UriParserStateStructA, ptr %69, i32 0, i32 0
  %71 = load ptr, ptr %70, align 8, !tbaa !12
  %72 = getelementptr inbounds nuw %struct.UriUriStructA, ptr %71, i32 0, i32 6
  store ptr %68, ptr %72, align 8, !tbaa !51
  br label %73

73:                                               ; preds = %60, %49
  store i32 1, ptr %5, align 4
  store i32 1, ptr %11, align 4
  br label %74

74:                                               ; preds = %73, %19
  call void @llvm.lifetime.end.p0(i64 8, ptr %10) #7
  %75 = load i32, ptr %5, align 4
  ret i32 %75
}

; Function Attrs: inlinehint nounwind uwtable
define internal ptr @uriParseSegmentNzA(ptr noundef %0, ptr noundef %1, ptr noundef %2, ptr noundef %3) #4 {
  %5 = alloca ptr, align 8
  %6 = alloca ptr, align 8
  %7 = alloca ptr, align 8
  %8 = alloca ptr, align 8
  %9 = alloca ptr, align 8
  %10 = alloca ptr, align 8
  %11 = alloca i32, align 4
  store ptr %0, ptr %6, align 8, !tbaa !3
  store ptr %1, ptr %7, align 8, !tbaa !8
  store ptr %2, ptr %8, align 8, !tbaa !8
  store ptr %3, ptr %9, align 8, !tbaa !10
  call void @llvm.lifetime.start.p0(i64 8, ptr %10) #7
  %12 = load ptr, ptr %6, align 8, !tbaa !3
  %13 = load ptr, ptr %7, align 8, !tbaa !8
  %14 = load ptr, ptr %8, align 8, !tbaa !8
  %15 = load ptr, ptr %9, align 8, !tbaa !10
  %16 = call ptr @uriParsePcharA(ptr noundef %12, ptr noundef %13, ptr noundef %14, ptr noundef %15)
  store ptr %16, ptr %10, align 8, !tbaa !8
  %17 = load ptr, ptr %10, align 8, !tbaa !8
  %18 = icmp eq ptr %17, null
  br i1 %18, label %19, label %20

19:                                               ; preds = %4
  store ptr null, ptr %5, align 8
  store i32 1, ptr %11, align 4
  br label %26

20:                                               ; preds = %4
  %21 = load ptr, ptr %6, align 8, !tbaa !3
  %22 = load ptr, ptr %10, align 8, !tbaa !8
  %23 = load ptr, ptr %8, align 8, !tbaa !8
  %24 = load ptr, ptr %9, align 8, !tbaa !10
  %25 = call ptr @uriParseSegmentA(ptr noundef %21, ptr noundef %22, ptr noundef %23, ptr noundef %24)
  store ptr %25, ptr %5, align 8
  store i32 1, ptr %11, align 4
  br label %26

26:                                               ; preds = %20, %19
  call void @llvm.lifetime.end.p0(i64 8, ptr %10) #7
  %27 = load ptr, ptr %5, align 8
  ret ptr %27
}

; Function Attrs: inlinehint nounwind uwtable
define internal ptr @uriParsePathRootlessA(ptr noundef %0, ptr noundef %1, ptr noundef %2, ptr noundef %3) #4 {
  %5 = alloca ptr, align 8
  %6 = alloca ptr, align 8
  %7 = alloca ptr, align 8
  %8 = alloca ptr, align 8
  %9 = alloca ptr, align 8
  %10 = alloca ptr, align 8
  %11 = alloca i32, align 4
  store ptr %0, ptr %6, align 8, !tbaa !3
  store ptr %1, ptr %7, align 8, !tbaa !8
  store ptr %2, ptr %8, align 8, !tbaa !8
  store ptr %3, ptr %9, align 8, !tbaa !10
  call void @llvm.lifetime.start.p0(i64 8, ptr %10) #7
  %12 = load ptr, ptr %6, align 8, !tbaa !3
  %13 = load ptr, ptr %7, align 8, !tbaa !8
  %14 = load ptr, ptr %8, align 8, !tbaa !8
  %15 = load ptr, ptr %9, align 8, !tbaa !10
  %16 = call ptr @uriParseSegmentNzA(ptr noundef %12, ptr noundef %13, ptr noundef %14, ptr noundef %15)
  store ptr %16, ptr %10, align 8, !tbaa !8
  %17 = load ptr, ptr %10, align 8, !tbaa !8
  %18 = icmp eq ptr %17, null
  br i1 %18, label %19, label %20

19:                                               ; preds = %4
  store ptr null, ptr %5, align 8
  store i32 1, ptr %11, align 4
  br label %37

20:                                               ; preds = %4
  %21 = load ptr, ptr %6, align 8, !tbaa !3
  %22 = load ptr, ptr %7, align 8, !tbaa !8
  %23 = load ptr, ptr %10, align 8, !tbaa !8
  %24 = load ptr, ptr %9, align 8, !tbaa !10
  %25 = call i32 @uriPushPathSegmentA(ptr noundef %21, ptr noundef %22, ptr noundef %23, ptr noundef %24)
  %26 = icmp ne i32 %25, 0
  br i1 %26, label %30, label %27

27:                                               ; preds = %20
  %28 = load ptr, ptr %6, align 8, !tbaa !3
  %29 = load ptr, ptr %9, align 8, !tbaa !10
  call void @uriStopMallocA(ptr noundef %28, ptr noundef %29)
  store ptr null, ptr %5, align 8
  store i32 1, ptr %11, align 4
  br label %37

30:                                               ; preds = %20
  br label %31

31:                                               ; preds = %30
  %32 = load ptr, ptr %6, align 8, !tbaa !3
  %33 = load ptr, ptr %10, align 8, !tbaa !8
  %34 = load ptr, ptr %8, align 8, !tbaa !8
  %35 = load ptr, ptr %9, align 8, !tbaa !10
  %36 = call ptr @uriParseZeroMoreSlashSegsA(ptr noundef %32, ptr noundef %33, ptr noundef %34, ptr noundef %35)
  store ptr %36, ptr %5, align 8
  store i32 1, ptr %11, align 4
  br label %37

37:                                               ; preds = %31, %27, %19
  call void @llvm.lifetime.end.p0(i64 8, ptr %10) #7
  %38 = load ptr, ptr %5, align 8
  ret ptr %38
}

; Function Attrs: inlinehint nounwind uwtable
define internal ptr @uriParseHierPartA(ptr noundef %0, ptr noundef %1, ptr noundef %2, ptr noundef %3) #4 {
  %5 = alloca ptr, align 8
  %6 = alloca ptr, align 8
  %7 = alloca ptr, align 8
  %8 = alloca ptr, align 8
  %9 = alloca ptr, align 8
  store ptr %0, ptr %6, align 8, !tbaa !3
  store ptr %1, ptr %7, align 8, !tbaa !8
  store ptr %2, ptr %8, align 8, !tbaa !8
  store ptr %3, ptr %9, align 8, !tbaa !10
  %10 = load ptr, ptr %7, align 8, !tbaa !8
  %11 = load ptr, ptr %8, align 8, !tbaa !8
  %12 = icmp uge ptr %10, %11
  br i1 %12, label %13, label %15

13:                                               ; preds = %4
  %14 = load ptr, ptr %8, align 8, !tbaa !8
  store ptr %14, ptr %5, align 8
  br label %34

15:                                               ; preds = %4
  %16 = load ptr, ptr %7, align 8, !tbaa !8
  %17 = load i8, ptr %16, align 1, !tbaa !57
  %18 = sext i8 %17 to i32
  switch i32 %18, label %32 [
    i32 33, label %19
    i32 36, label %19
    i32 37, label %19
    i32 38, label %19
    i32 40, label %19
    i32 41, label %19
    i32 45, label %19
    i32 42, label %19
    i32 44, label %19
    i32 46, label %19
    i32 58, label %19
    i32 59, label %19
    i32 64, label %19
    i32 39, label %19
    i32 95, label %19
    i32 126, label %19
    i32 43, label %19
    i32 61, label %19
    i32 48, label %19
    i32 49, label %19
    i32 50, label %19
    i32 51, label %19
    i32 52, label %19
    i32 53, label %19
    i32 54, label %19
    i32 55, label %19
    i32 56, label %19
    i32 57, label %19
    i32 65, label %19
    i32 66, label %19
    i32 67, label %19
    i32 68, label %19
    i32 69, label %19
    i32 70, label %19
    i32 97, label %19
    i32 98, label %19
    i32 99, label %19
    i32 100, label %19
    i32 101, label %19
    i32 102, label %19
    i32 103, label %19
    i32 71, label %19
    i32 104, label %19
    i32 72, label %19
    i32 105, label %19
    i32 73, label %19
    i32 106, label %19
    i32 74, label %19
    i32 107, label %19
    i32 75, label %19
    i32 108, label %19
    i32 76, label %19
    i32 109, label %19
    i32 77, label %19
    i32 110, label %19
    i32 78, label %19
    i32 111, label %19
    i32 79, label %19
    i32 112, label %19
    i32 80, label %19
    i32 113, label %19
    i32 81, label %19
    i32 114, label %19
    i32 82, label %19
    i32 115, label %19
    i32 83, label %19
    i32 116, label %19
    i32 84, label %19
    i32 117, label %19
    i32 85, label %19
    i32 118, label %19
    i32 86, label %19
    i32 119, label %19
    i32 87, label %19
    i32 120, label %19
    i32 88, label %19
    i32 121, label %19
    i32 89, label %19
    i32 122, label %19
    i32 90, label %19
    i32 47, label %25
  ]

19:                                               ; preds = %15, %15, %15, %15, %15, %15, %15, %15, %15, %15, %15, %15, %15, %15, %15, %15, %15, %15, %15, %15, %15, %15, %15, %15, %15, %15, %15, %15, %15, %15, %15, %15, %15, %15, %15, %15, %15, %15, %15, %15, %15, %15, %15, %15, %15, %15, %15, %15, %15, %15, %15, %15, %15, %15, %15, %15, %15, %15, %15, %15, %15, %15, %15, %15, %15, %15, %15, %15, %15, %15, %15, %15, %15, %15, %15, %15, %15, %15, %15, %15
  %20 = load ptr, ptr %6, align 8, !tbaa !3
  %21 = load ptr, ptr %7, align 8, !tbaa !8
  %22 = load ptr, ptr %8, align 8, !tbaa !8
  %23 = load ptr, ptr %9, align 8, !tbaa !10
  %24 = call ptr @uriParsePathRootlessA(ptr noundef %20, ptr noundef %21, ptr noundef %22, ptr noundef %23)
  store ptr %24, ptr %5, align 8
  br label %34

25:                                               ; preds = %15
  %26 = load ptr, ptr %6, align 8, !tbaa !3
  %27 = load ptr, ptr %7, align 8, !tbaa !8
  %28 = getelementptr inbounds i8, ptr %27, i64 1
  %29 = load ptr, ptr %8, align 8, !tbaa !8
  %30 = load ptr, ptr %9, align 8, !tbaa !10
  %31 = call ptr @uriParsePartHelperTwoA(ptr noundef %26, ptr noundef %28, ptr noundef %29, ptr noundef %30)
  store ptr %31, ptr %5, align 8
  br label %34

32:                                               ; preds = %15
  %33 = load ptr, ptr %7, align 8, !tbaa !8
  store ptr %33, ptr %5, align 8
  br label %34

34:                                               ; preds = %32, %25, %19, %13
  %35 = load ptr, ptr %5, align 8
  ret ptr %35
}