; Function Attrs: inlinehint nounwind uwtable
define internal fastcc noundef ptr @uriParseHierPartA(ptr noundef nonnull %0, ptr noundef nonnull %1, ptr noundef nonnull %2, ptr noundef %3) unnamed_addr #4 {
  %.not = icmp ult ptr %1, %2
  br i1 %.not, label %5, label %uriParsePathRootlessA.exit

5:                                                ; preds = %4
  %6 = load i8, ptr %1, align 1, !tbaa !11
  switch i8 %6, label %uriParsePathRootlessA.exit [
    i8 33, label %7
    i8 36, label %7
    i8 37, label %7
    i8 38, label %7
    i8 40, label %7
    i8 41, label %7
    i8 45, label %7
    i8 42, label %7
    i8 44, label %7
    i8 46, label %7
    i8 58, label %7
    i8 59, label %7
    i8 64, label %7
    i8 39, label %7
    i8 95, label %7
    i8 126, label %7
    i8 43, label %7
    i8 61, label %7
    i8 48, label %7
    i8 49, label %7
    i8 50, label %7
    i8 51, label %7
    i8 52, label %7
    i8 53, label %7
    i8 54, label %7
    i8 55, label %7
    i8 56, label %7
    i8 57, label %7
    i8 65, label %7
    i8 66, label %7
    i8 67, label %7
    i8 68, label %7
    i8 69, label %7
    i8 70, label %7
    i8 97, label %7
    i8 98, label %7
    i8 99, label %7
    i8 100, label %7
    i8 101, label %7
    i8 102, label %7
    i8 103, label %7
    i8 71, label %7
    i8 104, label %7
    i8 72, label %7
    i8 105, label %7
    i8 73, label %7
    i8 106, label %7
    i8 74, label %7
    i8 107, label %7
    i8 75, label %7
    i8 108, label %7
    i8 76, label %7
    i8 109, label %7
    i8 77, label %7
    i8 110, label %7
    i8 78, label %7
    i8 111, label %7
    i8 79, label %7
    i8 112, label %7
    i8 80, label %7
    i8 113, label %7
    i8 81, label %7
    i8 114, label %7
    i8 82, label %7
    i8 115, label %7
    i8 83, label %7
    i8 116, label %7
    i8 84, label %7
    i8 117, label %7
    i8 85, label %7
    i8 118, label %7
    i8 86, label %7
    i8 119, label %7
    i8 87, label %7
    i8 120, label %7
    i8 88, label %7
    i8 121, label %7
    i8 89, label %7
    i8 122, label %7
    i8 90, label %7
    i8 47, label %58
  ]

7:                                                ; preds = %5, %5, %5, %5, %5, %5, %5, %5, %5, %5, %5, %5, %5, %5, %5, %5, %5, %5, %5, %5, %5, %5, %5, %5, %5, %5, %5, %5, %5, %5, %5, %5, %5, %5, %5, %5, %5, %5, %5, %5, %5, %5, %5, %5, %5, %5, %5, %5, %5, %5, %5, %5, %5, %5, %5, %5, %5, %5, %5, %5, %5, %5, %5, %5, %5, %5, %5, %5, %5, %5, %5, %5, %5, %5, %5, %5, %5, %5, %5, %5
  %8 = tail call fastcc ptr @uriParsePcharA(ptr noundef nonnull %0, ptr noundef nonnull %1, ptr noundef nonnull %2, ptr noundef %3)
  %9 = icmp eq ptr %8, null
  br i1 %9, label %uriParsePathRootlessA.exit, label %uriParseSegmentNzA.exit.i

uriParseSegmentNzA.exit.i:                        ; preds = %7
  %10 = tail call fastcc ptr @uriParseSegmentA(ptr noundef nonnull %0, ptr noundef %8, ptr noundef nonnull %2, ptr noundef %3)
  %11 = icmp eq ptr %10, null
  br i1 %11, label %uriParsePathRootlessA.exit, label %12

12:                                               ; preds = %uriParseSegmentNzA.exit.i
  %13 = getelementptr inbounds nuw i8, ptr %3, i64 8
  %14 = load ptr, ptr %13, align 8, !tbaa !19
  %15 = tail call ptr %14(ptr noundef %3, i64 noundef 1, i64 noundef 32) #7
  %16 = icmp eq ptr %15, null
  br i1 %16, label %uriParseZeroMoreSlashSegsA.exit.sink.split.i, label %17

17:                                               ; preds = %12
  %18 = icmp eq ptr %1, %10
  %19 = load ptr, ptr @uriSafeToPointToA, align 8
  %spec.select.i.i = select i1 %18, ptr %19, ptr %1
  %spec.select24.i.i = select i1 %18, ptr %19, ptr %10
  store ptr %spec.select.i.i, ptr %15, align 8, !tbaa !21
  %20 = getelementptr inbounds nuw i8, ptr %15, i64 8
  store ptr %spec.select24.i.i, ptr %20, align 8, !tbaa !23
  %21 = load ptr, ptr %0, align 8, !tbaa !3
  %22 = getelementptr inbounds nuw i8, ptr %21, i64 96
  %23 = load ptr, ptr %22, align 8, !tbaa !24
  %24 = icmp eq ptr %23, null
  br i1 %24, label %25, label %27

25:                                               ; preds = %17
  store ptr %15, ptr %22, align 8, !tbaa !24
  %26 = getelementptr inbounds nuw i8, ptr %21, i64 104
  store ptr %15, ptr %26, align 8, !tbaa !25
  br label %31

27:                                               ; preds = %17
  %28 = getelementptr inbounds nuw i8, ptr %21, i64 104
  %29 = load ptr, ptr %28, align 8, !tbaa !25
  %30 = getelementptr inbounds nuw i8, ptr %29, i64 16
  store ptr %15, ptr %30, align 8, !tbaa !26
  store ptr %15, ptr %28, align 8, !tbaa !25
  br label %31

31:                                               ; preds = %27, %25
  %.not31.i.i = icmp ult ptr %10, %2
  br i1 %.not31.i.i, label %.lr.ph.i.i, label %uriParsePathRootlessA.exit

.lr.ph.i.i:                                       ; preds = %31, %tailrecurse.i.i
  %.tr2832.i.i = phi ptr [ %35, %tailrecurse.i.i ], [ %10, %31 ]
  %32 = load i8, ptr %.tr2832.i.i, align 1, !tbaa !11
  %cond.i.i = icmp eq i8 %32, 47
  br i1 %cond.i.i, label %33, label %uriParsePathRootlessA.exit

33:                                               ; preds = %.lr.ph.i.i
  %34 = getelementptr inbounds nuw i8, ptr %.tr2832.i.i, i64 1
  %35 = tail call fastcc ptr @uriParseSegmentA(ptr noundef nonnull %0, ptr noundef %34, ptr noundef nonnull %2, ptr noundef nonnull %3)
  %36 = icmp eq ptr %35, null
  br i1 %36, label %uriParsePathRootlessA.exit, label %37

37:                                               ; preds = %33
  %38 = load ptr, ptr %13, align 8, !tbaa !19
  %39 = tail call ptr %38(ptr noundef nonnull %3, i64 noundef 1, i64 noundef 32) #7
  %40 = icmp eq ptr %39, null
  br i1 %40, label %uriParseZeroMoreSlashSegsA.exit.sink.split.i, label %41

41:                                               ; preds = %37
  %42 = icmp eq ptr %34, %35
  %spec.select.i.i.i = select i1 %42, ptr %19, ptr %34
  %spec.select24.i.i.i = select i1 %42, ptr %19, ptr %35
  store ptr %spec.select.i.i.i, ptr %39, align 8, !tbaa !21
  %43 = getelementptr inbounds nuw i8, ptr %39, i64 8
  store ptr %spec.select24.i.i.i, ptr %43, align 8, !tbaa !23
  %44 = load ptr, ptr %0, align 8, !tbaa !3
  %45 = getelementptr inbounds nuw i8, ptr %44, i64 96
  %46 = load ptr, ptr %45, align 8, !tbaa !24
  %47 = icmp eq ptr %46, null
  br i1 %47, label %48, label %50

48:                                               ; preds = %41
  store ptr %39, ptr %45, align 8, !tbaa !24
  %49 = getelementptr inbounds nuw i8, ptr %44, i64 104
  store ptr %39, ptr %49, align 8, !tbaa !25
  br label %tailrecurse.i.i

50:                                               ; preds = %41
  %51 = getelementptr inbounds nuw i8, ptr %44, i64 104
  %52 = load ptr, ptr %51, align 8, !tbaa !25
  %53 = getelementptr inbounds nuw i8, ptr %52, i64 16
  store ptr %39, ptr %53, align 8, !tbaa !26
  store ptr %39, ptr %51, align 8, !tbaa !25
  br label %tailrecurse.i.i

tailrecurse.i.i:                                  ; preds = %50, %48
  %.not.i.i = icmp ult ptr %35, %2
  br i1 %.not.i.i, label %.lr.ph.i.i, label %uriParsePathRootlessA.exit

uriParseZeroMoreSlashSegsA.exit.sink.split.i:     ; preds = %37, %12
  %54 = load ptr, ptr %0, align 8, !tbaa !3
  %55 = tail call i32 @uriFreeUriMembersMmA(ptr noundef %54, ptr noundef nonnull %3)
  %56 = getelementptr inbounds nuw i8, ptr %0, i64 16
  store ptr null, ptr %56, align 8, !tbaa !28
  %57 = getelementptr inbounds nuw i8, ptr %0, i64 8
  store i32 3, ptr %57, align 8, !tbaa !29
  br label %uriParsePathRootlessA.exit

58:                                               ; preds = %5
  %59 = getelementptr inbounds nuw i8, ptr %1, i64 1
  %60 = tail call fastcc ptr @uriParsePartHelperTwoA(ptr noundef %0, ptr noundef %59, ptr noundef %2, ptr noundef %3)
  br label %uriParsePathRootlessA.exit

uriParsePathRootlessA.exit:                       ; preds = %tailrecurse.i.i, %33, %.lr.ph.i.i, %uriParseZeroMoreSlashSegsA.exit.sink.split.i, %31, %uriParseSegmentNzA.exit.i, %7, %5, %4, %58
  %.0 = phi ptr [ %60, %58 ], [ %2, %4 ], [ %1, %5 ], [ null, %uriParseSegmentNzA.exit.i ], [ %2, %31 ], [ null, %7 ], [ null, %uriParseZeroMoreSlashSegsA.exit.sink.split.i ], [ %2, %tailrecurse.i.i ], [ null, %33 ], [ %.tr2832.i.i, %.lr.ph.i.i ]
  ret ptr %.0
}